; Function Attrs: mustprogress uwtable
define hidden noundef zeroext i1 @_ZN4cvc58internal6theory9datatypes5utils20isNullaryConstructorERKNS0_16DTypeConstructorE(ptr noundef nonnull align 8 dereferenceable(264) %0) local_unnamed_addr #3 personality ptr @__gxx_personality_v0 {
  %2 = alloca %"class.cvc5::internal::TypeNode", align 8
  %3 = alloca %"class.cvc5::internal::TypeNode", align 8
  %4 = tail call noundef i64 @_ZNK4cvc58internal16DTypeConstructor10getNumArgsEv(ptr noundef nonnull align 8 dereferenceable(264) %0)
  %5 = and i64 %4, 4294967295
  %6 = icmp eq i64 %5, 0
  br i1 %6, label %_ZN4cvc58internal8TypeNodeD2Ev.exit15._crit_edge, label %.lr.ph.preheader

.lr.ph.preheader:                                 ; preds = %1
  %wide.trip.count = and i64 %4, 4294967295
  br label %.lr.ph

.lr.ph:                                           ; preds = %_ZN4cvc58internal8TypeNodeD2Ev.exit15, %.lr.ph.preheader
  %indvars.iv = phi i64 [ 0, %.lr.ph.preheader ], [ %indvars.iv.next, %_ZN4cvc58internal8TypeNodeD2Ev.exit15 ]
  call void @llvm.lifetime.start.p0(i64 8, ptr nonnull %2) #22
  call void @llvm.lifetime.start.p0(i64 8, ptr nonnull %3) #22
  %7 = call noundef nonnull align 8 dereferenceable(57) ptr @_ZNK4cvc58internal16DTypeConstructorixEm(ptr noundef nonnull align 8 dereferenceable(264) %0, i64 noundef %indvars.iv)
  call void @_ZNK4cvc58internal13DTypeSelector7getTypeEv(ptr dead_on_unwind nonnull writable sret(%"class.cvc5::internal::TypeNode") align 8 %3, ptr noundef nonnull align 8 dereferenceable(57) %7)
  invoke void @_ZNK4cvc58internal8TypeNode12getRangeTypeEv(ptr dead_on_unwind nonnull writable sret(%"class.cvc5::internal::TypeNode") align 8 %2, ptr noundef nonnull align 8 dereferenceable(8) %3)
          to label %8 unwind label %37

8:                                                ; preds = %.lr.ph
  %9 = invoke noundef zeroext i1 @_ZNK4cvc58internal8TypeNode10isDatatypeEv(ptr noundef nonnull align 8 dereferenceable(8) %2)
          to label %10 unwind label %39

10:                                               ; preds = %8
  %11 = load ptr, ptr %2, align 8, !tbaa !3
  %12 = load i64, ptr %11, align 8
  %13 = and i64 %12, 1152920405095219200
  %.not.i.i = icmp eq i64 %13, 1152920405095219200
  br i1 %.not.i.i, label %_ZN4cvc58internal8TypeNodeD2Ev.exit, label %14, !prof !10

14:                                               ; preds = %10
  %15 = add i64 %12, 1152920405095219200
  %16 = and i64 %15, 1152920405095219200
  %17 = and i64 %12, -1152920405095219201
  %18 = or disjoint i64 %16, %17
  store i64 %18, ptr %11, align 8
  %19 = icmp eq i64 %16, 0
  br i1 %19, label %20, label %_ZN4cvc58internal8TypeNodeD2Ev.exit, !prof !10

20:                                               ; preds = %14
  invoke void @_ZN4cvc58internal4expr9NodeValue15markForDeletionEv(ptr noundef nonnull align 8 dereferenceable(24) %11)
          to label %_ZN4cvc58internal8TypeNodeD2Ev.exit unwind label %21

21:                                               ; preds = %20
  %22 = landingpad { ptr, i32 }
          catch ptr null
  %23 = extractvalue { ptr, i32 } %22, 0
  call void @__clang_call_terminate(ptr %23) #21
  unreachable

_ZN4cvc58internal8TypeNodeD2Ev.exit:              ; preds = %10, %14, %20
  %24 = load ptr, ptr %3, align 8, !tbaa !3
  %25 = load i64, ptr %24, align 8
  %26 = and i64 %25, 1152920405095219200
  %.not.i.i14 = icmp eq i64 %26, 1152920405095219200
  br i1 %.not.i.i14, label %_ZN4cvc58internal8TypeNodeD2Ev.exit15, label %27, !prof !10

27:                                               ; preds = %_ZN4cvc58internal8TypeNodeD2Ev.exit
  %28 = add i64 %25, 1152920405095219200
  %29 = and i64 %28, 1152920405095219200
  %30 = and i64 %25, -1152920405095219201
  %31 = or disjoint i64 %29, %30
  store i64 %31, ptr %24, align 8
  %32 = icmp eq i64 %29, 0
  br i1 %32, label %33, label %_ZN4cvc58internal8TypeNodeD2Ev.exit15, !prof !10

33:                                               ; preds = %27
  invoke void @_ZN4cvc58internal4expr9NodeValue15markForDeletionEv(ptr noundef nonnull align 8 dereferenceable(24) %24)
          to label %_ZN4cvc58internal8TypeNodeD2Ev.exit15 unwind label %34

34:                                               ; preds = %33
  %35 = landingpad { ptr, i32 }
          catch ptr null
  %36 = extractvalue { ptr, i32 } %35, 0
  call void @__clang_call_terminate(ptr %36) #21
  unreachable

_ZN4cvc58internal8TypeNodeD2Ev.exit15:            ; preds = %_ZN4cvc58internal8TypeNodeD2Ev.exit, %27, %33
  call void @llvm.lifetime.end.p0(i64 8, ptr nonnull %3) #22
  call void @llvm.lifetime.end.p0(i64 8, ptr nonnull %2) #22
  %indvars.iv.next = add nuw nsw i64 %indvars.iv, 1
  %exitcond.not = icmp eq i64 %indvars.iv.next, %wide.trip.count
  %or.cond = select i1 %9, i1 true, i1 %exitcond.not
  br i1 %or.cond, label %_ZN4cvc58internal8TypeNodeD2Ev.exit15._crit_edge.loopexit, label %.lr.ph, !llvm.loop !66

37:                                               ; preds = %.lr.ph
  %38 = landingpad { ptr, i32 }
          cleanup
  br label %41

39:                                               ; preds = %8
  %40 = landingpad { ptr, i32 }
          cleanup
  call void @_ZN4cvc58internal8TypeNodeD2Ev(ptr noundef nonnull align 8 dereferenceable(8) %2) #22
  br label %41

41:                                               ; preds = %39, %37
  %.pn = phi { ptr, i32 } [ %40, %39 ], [ %38, %37 ]
  call void @_ZN4cvc58internal8TypeNodeD2Ev(ptr noundef nonnull align 8 dereferenceable(8) %3) #22
  call void @llvm.lifetime.end.p0(i64 8, ptr nonnull %3) #22
  call void @llvm.lifetime.end.p0(i64 8, ptr nonnull %2) #22
  resume { ptr, i32 } %.pn

_ZN4cvc58internal8TypeNodeD2Ev.exit15._crit_edge.loopexit: ; preds = %_ZN4cvc58internal8TypeNodeD2Ev.exit15
  %.lcssa.ph = xor i1 %9, true
  br label %_ZN4cvc58internal8TypeNodeD2Ev.exit15._crit_edge

_ZN4cvc58internal8TypeNodeD2Ev.exit15._crit_edge: ; preds = %_ZN4cvc58internal8TypeNodeD2Ev.exit15._crit_edge.loopexit, %1
  %.lcssa = phi i1 [ true, %1 ], [ %.lcssa.ph, %_ZN4cvc58internal8TypeNodeD2Ev.exit15._crit_edge.loopexit ]
  ret i1 %.lcssa
}